target datalayout = "e-m:e-p270:32:32-p271:32:32-p272:64:64-i64:64-i128:128-f80:128-n8:16:32:64-S128"
target triple = "x86_64-pc-linux-gnu"

%struct.ma_resampling_backend_vtable = type { ptr, ptr, ptr, ptr, ptr, ptr, ptr, ptr, ptr, ptr }
%struct.ma_data_converter = type { i32, i32, i32, i32, i32, i32, i32, i32, %struct.ma_channel_converter, %struct.ma_resampler, i8, i8, i8, i8, i8, i8, ptr }
%struct.ma_channel_converter = type { i32, i32, i32, i32, i32, ptr, ptr, ptr, %union.anon.22, ptr, i32 }
%union.anon.22 = type { ptr }
%struct.ma_resampler = type { ptr, ptr, ptr, i32, i32, i32, i32, %union.anon.23, ptr, i32 }
%union.anon.23 = type { %struct.ma_linear_resampler }
%struct.ma_linear_resampler = type { %struct.ma_linear_resampler_config, i32, i32, i32, i32, %union.anon.24, %union.anon.25, %struct.ma_lpf, ptr, i32 }
%struct.ma_linear_resampler_config = type { i32, i32, i32, i32, i32, double }
%union.anon.24 = type { ptr }
%union.anon.25 = type { ptr }
%struct.ma_lpf = type { i32, i32, i32, i32, i32, ptr, ptr, ptr, i32 }

; Function Attrs: nounwind uwtable
define hidden i32 @ma_resampler_reset(ptr noundef %0) #0 {
  %2 = alloca i32, align 4
  %3 = alloca ptr, align 8
  store ptr %0, ptr %3, align 8
  %4 = load ptr, ptr %3, align 8
  %5 = icmp eq ptr %4, null
  br i1 %5, label %6, label %7

6:                                                ; preds = %1
  store i32 -2, ptr %2, align 4
  br label %33

7:                                                ; preds = %1
  %8 = load ptr, ptr %3, align 8
  %9 = getelementptr inbounds nuw %struct.ma_resampler, ptr %8, i32 0, i32 1
  %10 = load ptr, ptr %9, align 8
  %11 = icmp eq ptr %10, null
  br i1 %11, label %19, label %12

12:                                               ; preds = %7
  %13 = load ptr, ptr %3, align 8
  %14 = getelementptr inbounds nuw %struct.ma_resampler, ptr %13, i32 0, i32 1
  %15 = load ptr, ptr %14, align 8
  %16 = getelementptr inbounds nuw %struct.ma_resampling_backend_vtable, ptr %15, i32 0, i32 9
  %17 = load ptr, ptr %16, align 8
  %18 = icmp eq ptr %17, null
  br i1 %18, label %19, label %20

19:                                               ; preds = %12, %7
  store i32 -29, ptr %2, align 4
  br label %33

20:                                               ; preds = %12
  %21 = load ptr, ptr %3, align 8
  %22 = getelementptr inbounds nuw %struct.ma_resampler, ptr %21, i32 0, i32 1
  %23 = load ptr, ptr %22, align 8
  %24 = getelementptr inbounds nuw %struct.ma_resampling_backend_vtable, ptr %23, i32 0, i32 9
  %25 = load ptr, ptr %24, align 8
  %26 = load ptr, ptr %3, align 8
  %27 = getelementptr inbounds nuw %struct.ma_resampler, ptr %26, i32 0, i32 2
  %28 = load ptr, ptr %27, align 8
  %29 = load ptr, ptr %3, align 8
  %30 = getelementptr inbounds nuw %struct.ma_resampler, ptr %29, i32 0, i32 0
  %31 = load ptr, ptr %30, align 8
  %32 = call i32 %25(ptr noundef %28, ptr noundef %31)
  store i32 %32, ptr %2, align 4
  br label %33

33:                                               ; preds = %20, %19, %6
  %34 = load i32, ptr %2, align 4
  ret i32 %34
}

; Function Attrs: nounwind uwtable
define hidden i32 @ma_data_converter_reset(ptr noundef %0) #0 {
  %2 = alloca i32, align 4
  %3 = alloca ptr, align 8
  store ptr %0, ptr %3, align 8
  %4 = load ptr, ptr %3, align 8
  %5 = icmp eq ptr %4, null
  br i1 %5, label %6, label %7

6:                                                ; preds = %1
  store i32 -2, ptr %2, align 4
  br label %18

7:                                                ; preds = %1
  %8 = load ptr, ptr %3, align 8
  %9 = getelementptr inbounds nuw %struct.ma_data_converter, ptr %8, i32 0, i32 13
  %10 = load i8, ptr %9, align 1
  %11 = zext i8 %10 to i32
  %12 = icmp eq i32 %11, 0
  br i1 %12, label %13, label %14

13:                                               ; preds = %7
  store i32 0, ptr %2, align 4
  br label %18

14:                                               ; preds = %7
  %15 = load ptr, ptr %3, align 8
  %16 = getelementptr inbounds nuw %struct.ma_data_converter, ptr %15, i32 0, i32 9
  %17 = call i32 @ma_resampler_reset(ptr noundef %16)
  store i32 %17, ptr %2, align 4
  br label %18

18:                                               ; preds = %14, %13, %6
  %19 = load i32, ptr %2, align 4
  ret i32 %19
}