; Function Attrs: nounwind uwtable
define hidden i32 @ma_data_converter_reset(ptr noundef readonly captures(address_is_null) %0) local_unnamed_addr #7 {
  %2 = icmp eq ptr %0, null
  br i1 %2, label %ma_resampler_reset.exit, label %3

3:                                                ; preds = %1
  %4 = getelementptr inbounds nuw i8, ptr %0, i64 299
  %5 = load i8, ptr %4, align 1
  %6 = icmp eq i8 %5, 0
  br i1 %6, label %ma_resampler_reset.exit, label %7

7:                                                ; preds = %3
  %8 = getelementptr inbounds nuw i8, ptr %0, i64 104
  %9 = getelementptr inbounds nuw i8, ptr %0, i64 112
  %10 = load ptr, ptr %9, align 8
  %11 = icmp eq ptr %10, null
  br i1 %11, label %ma_resampler_reset.exit, label %12

12:                                               ; preds = %7
  %13 = getelementptr inbounds nuw i8, ptr %10, i64 72
  %14 = load ptr, ptr %13, align 8
  %15 = icmp eq ptr %14, null
  br i1 %15, label %ma_resampler_reset.exit, label %16

16:                                               ; preds = %12
  %17 = getelementptr inbounds nuw i8, ptr %0, i64 120
  %18 = load ptr, ptr %17, align 8
  %19 = load ptr, ptr %8, align 8
  %20 = tail call i32 %14(ptr noundef %18, ptr noundef %19) #72
  br label %ma_resampler_reset.exit

ma_resampler_reset.exit:                          ; preds = %16, %12, %7, %3, %1
  %.0 = phi i32 [ -2, %1 ], [ 0, %3 ], [ %20, %16 ], [ -29, %12 ], [ -29, %7 ]
  ret i32 %.0
}